target datalayout = "e-m:e-p270:32:32-p271:32:32-p272:64:64-i64:64-i128:128-f80:128-n8:16:32:64-S128"
target triple = "x86_64-pc-linux-gnu"

%struct.ident_t = type { i32, i32, i32, i32, ptr }
%"class.LightGBM::Metadata" = type <{ %"class.std::__cxx11::basic_string", i32, i32, i32, [4 x i8], %"class.std::vector", %"class.std::vector", %"class.std::vector.3", %"class.std::vector.8", %"class.std::vector.3", %"class.std::vector", i32, [4 x i8], i64, %"class.std::vector.13", %"class.std::vector.3", %"class.std::mutex", i8, i8, i8, i8, [4 x i8] }>
%"class.std::__cxx11::basic_string" = type { %"struct.std::__cxx11::basic_string<char>::_Alloc_hider", i64, %union.anon }
%"struct.std::__cxx11::basic_string<char>::_Alloc_hider" = type { ptr }
%union.anon = type { i64, [8 x i8] }
%"class.std::vector.8" = type { %"struct.std::_Vector_base.9" }
%"struct.std::_Vector_base.9" = type { %"struct.std::_Vector_base<std::__cxx11::basic_string<char>, std::allocator<std::__cxx11::basic_string<char>>>::_Vector_impl" }
%"struct.std::_Vector_base<std::__cxx11::basic_string<char>, std::allocator<std::__cxx11::basic_string<char>>>::_Vector_impl" = type { %"struct.std::_Vector_base<std::__cxx11::basic_string<char>, std::allocator<std::__cxx11::basic_string<char>>>::_Vector_impl_data" }
%"struct.std::_Vector_base<std::__cxx11::basic_string<char>, std::allocator<std::__cxx11::basic_string<char>>>::_Vector_impl_data" = type { ptr, ptr, ptr }
%"class.std::vector" = type { %"struct.std::_Vector_base" }
%"struct.std::_Vector_base" = type { %"struct.std::_Vector_base<float, std::allocator<float>>::_Vector_impl" }
%"struct.std::_Vector_base<float, std::allocator<float>>::_Vector_impl" = type { %"struct.std::_Vector_base<float, std::allocator<float>>::_Vector_impl_data" }
%"struct.std::_Vector_base<float, std::allocator<float>>::_Vector_impl_data" = type { ptr, ptr, ptr }
%"class.std::vector.13" = type { %"struct.std::_Vector_base.14" }
%"struct.std::_Vector_base.14" = type { %"struct.std::_Vector_base<double, std::allocator<double>>::_Vector_impl" }
%"struct.std::_Vector_base<double, std::allocator<double>>::_Vector_impl" = type { %"struct.std::_Vector_base<double, std::allocator<double>>::_Vector_impl_data" }
%"struct.std::_Vector_base<double, std::allocator<double>>::_Vector_impl_data" = type { ptr, ptr, ptr }
%"class.std::vector.3" = type { %"struct.std::_Vector_base.4" }
%"struct.std::_Vector_base.4" = type { %"struct.std::_Vector_base<int, std::allocator<int>>::_Vector_impl" }
%"struct.std::_Vector_base<int, std::allocator<int>>::_Vector_impl" = type { %"struct.std::_Vector_base<int, std::allocator<int>>::_Vector_impl_data" }
%"struct.std::_Vector_base<int, std::allocator<int>>::_Vector_impl_data" = type { ptr, ptr, ptr }
%"class.std::mutex" = type { %"class.std::__mutex_base" }
%"class.std::__mutex_base" = type { %union.pthread_mutex_t }
%union.pthread_mutex_t = type { %struct.__pthread_mutex_s }
%struct.__pthread_mutex_s = type { i32, i32, i32, i32, i32, i16, i16, %struct.__pthread_internal_list }
%struct.__pthread_internal_list = type { ptr, ptr }

@1 = private unnamed_addr constant %struct.ident_t { i32 0, i32 514, i32 0, i32 22, ptr @0 }, align 8

; Function Attrs: mustprogress nounwind uwtable
define linkonce_odr noundef nonnull align 4 dereferenceable(4) ptr @_ZNSt6vectorIfSaIfEEixEm(ptr noundef nonnull align 8 dereferenceable(24) %0, i64 noundef %1) #4 comdat align 2 {
  %3 = alloca ptr, align 8
  %4 = alloca i64, align 8
  store ptr %0, ptr %3, align 8, !tbaa !48
  store i64 %1, ptr %4, align 8, !tbaa !64
  %5 = load ptr, ptr %3, align 8
  %6 = getelementptr inbounds nuw %"struct.std::_Vector_base", ptr %5, i32 0, i32 0
  %7 = getelementptr inbounds nuw %"struct.std::_Vector_base<float, std::allocator<float>>::_Vector_impl_data", ptr %6, i32 0, i32 0
  %8 = load ptr, ptr %7, align 8, !tbaa !115
  %9 = load i64, ptr %4, align 8, !tbaa !64
  %10 = getelementptr inbounds nuw float, ptr %8, i64 %9
  ret ptr %10
}

; Function Attrs: mustprogress nounwind uwtable
define linkonce_odr noundef nonnull align 4 dereferenceable(4) ptr @_ZNKSt6vectorIiSaIiEEixEm(ptr noundef nonnull align 8 dereferenceable(24) %0, i64 noundef %1) #4 comdat align 2 {
  %3 = alloca ptr, align 8
  %4 = alloca i64, align 8
  store ptr %0, ptr %3, align 8, !tbaa !50
  store i64 %1, ptr %4, align 8, !tbaa !64
  %5 = load ptr, ptr %3, align 8
  %6 = getelementptr inbounds nuw %"struct.std::_Vector_base.4", ptr %5, i32 0, i32 0
  %7 = getelementptr inbounds nuw %"struct.std::_Vector_base<int, std::allocator<int>>::_Vector_impl_data", ptr %6, i32 0, i32 0
  %8 = load ptr, ptr %7, align 8, !tbaa !111
  %9 = load i64, ptr %4, align 8, !tbaa !64
  %10 = getelementptr inbounds nuw i32, ptr %8, i64 %9
  ret ptr %10
}

; Function Attrs: noinline norecurse nounwind uwtable
define internal void @_ZN8LightGBM8Metadata14PartitionLabelERKSt6vectorIiSaIiEE.omp_outlined(ptr noalias noundef %0, ptr noalias noundef %1, ptr noundef %2, ptr noundef nonnull align 8 dereferenceable(24) %3, ptr noundef nonnull align 8 dereferenceable(24) %4) #19 {
  %6 = alloca ptr, align 8
  %7 = alloca ptr, align 8
  %8 = alloca ptr, align 8
  %9 = alloca ptr, align 8
  %10 = alloca ptr, align 8
  %11 = alloca ptr, align 8
  %12 = alloca i32, align 4
  %13 = alloca i32, align 4
  %14 = alloca i32, align 4
  %15 = alloca i32, align 4
  %16 = alloca i32, align 4
  %17 = alloca i32, align 4
  %18 = alloca i32, align 4
  %19 = alloca i32, align 4
  %20 = alloca i32, align 4
  store ptr %0, ptr %6, align 8, !tbaa !119
  store ptr %1, ptr %7, align 8, !tbaa !119
  store ptr %2, ptr %8, align 8, !tbaa !4
  store ptr %3, ptr %9, align 8, !tbaa !48
  store ptr %4, ptr %10, align 8, !tbaa !50
  %21 = load ptr, ptr %8, align 8, !tbaa !4
  %22 = load ptr, ptr %9, align 8, !tbaa !48
  %23 = load ptr, ptr %10, align 8, !tbaa !50
  store ptr %23, ptr %11, align 8
  call void @llvm.lifetime.start.p0(i64 4, ptr %12) #3
  call void @llvm.lifetime.start.p0(i64 4, ptr %13) #3
  %24 = getelementptr inbounds nuw %"class.LightGBM::Metadata", ptr %21, i32 0, i32 1
  %25 = load i32, ptr %24, align 8, !tbaa !40
  store i32 %25, ptr %13, align 4, !tbaa !103
  call void @llvm.lifetime.start.p0(i64 4, ptr %14) #3
  %26 = load i32, ptr %13, align 4, !tbaa !103
  %27 = sub nsw i32 %26, 0
  %28 = sdiv i32 %27, 1
  %29 = sub nsw i32 %28, 1
  store i32 %29, ptr %14, align 4, !tbaa !103
  call void @llvm.lifetime.start.p0(i64 4, ptr %15) #3
  store i32 0, ptr %15, align 4, !tbaa !103
  call void @llvm.lifetime.end.p0(i64 4, ptr %15) #3
  %30 = load i32, ptr %13, align 4, !tbaa !103
  %31 = icmp slt i32 0, %30
  br i1 %31, label %32, label %88

32:                                               ; preds = %5
  call void @llvm.lifetime.start.p0(i64 4, ptr %16) #3
  store i32 0, ptr %16, align 4, !tbaa !103
  call void @llvm.lifetime.start.p0(i64 4, ptr %17) #3
  %33 = load i32, ptr %14, align 4, !tbaa !103
  store i32 %33, ptr %17, align 4, !tbaa !103
  call void @llvm.lifetime.start.p0(i64 4, ptr %18) #3
  store i32 1, ptr %18, align 4, !tbaa !103
  call void @llvm.lifetime.start.p0(i64 4, ptr %19) #3
  store i32 0, ptr %19, align 4, !tbaa !103
  call void @llvm.lifetime.start.p0(i64 4, ptr %20) #3
  %34 = load ptr, ptr %6, align 8
  %35 = load i32, ptr %34, align 4, !tbaa !103
  call void @__kmpc_for_static_init_4(ptr @1, i32 %35, i32 33, ptr %19, ptr %16, ptr %17, ptr %18, i32 1, i32 512)
  br label %36

36:                                               ; preds = %78, %32
  %37 = load i32, ptr %17, align 4, !tbaa !103
  %38 = load i32, ptr %14, align 4, !tbaa !103
  %39 = icmp sgt i32 %37, %38
  br i1 %39, label %40, label %42

40:                                               ; preds = %36
  %41 = load i32, ptr %14, align 4, !tbaa !103
  br label %44

42:                                               ; preds = %36
  %43 = load i32, ptr %17, align 4, !tbaa !103
  br label %44

44:                                               ; preds = %42, %40
  %45 = phi i32 [ %41, %40 ], [ %43, %42 ]
  store i32 %45, ptr %17, align 4, !tbaa !103
  %46 = load i32, ptr %16, align 4, !tbaa !103
  store i32 %46, ptr %12, align 4, !tbaa !103
  %47 = load i32, ptr %12, align 4, !tbaa !103
  %48 = load i32, ptr %17, align 4, !tbaa !103
  %49 = icmp sle i32 %47, %48
  br i1 %49, label %51, label %50

50:                                               ; preds = %44
  br label %85

51:                                               ; preds = %44
  br label %52

52:                                               ; preds = %74, %51
  %53 = load i32, ptr %12, align 4, !tbaa !103
  %54 = load i32, ptr %17, align 4, !tbaa !103
  %55 = icmp sle i32 %53, %54
  br i1 %55, label %57, label %56

56:                                               ; preds = %52
  br label %77

57:                                               ; preds = %52
  %58 = load i32, ptr %12, align 4, !tbaa !103
  %59 = mul nsw i32 %58, 1
  %60 = add nsw i32 0, %59
  store i32 %60, ptr %20, align 4, !tbaa !103
  %61 = load ptr, ptr %11, align 8, !tbaa !50
  %62 = load i32, ptr %20, align 4, !tbaa !103
  %63 = sext i32 %62 to i64
  %64 = call noundef nonnull align 4 dereferenceable(4) ptr @_ZNKSt6vectorIiSaIiEEixEm(ptr noundef nonnull align 8 dereferenceable(24) %61, i64 noundef %63) #3
  %65 = load i32, ptr %64, align 4, !tbaa !103
  %66 = sext i32 %65 to i64
  %67 = call noundef nonnull align 4 dereferenceable(4) ptr @_ZNSt6vectorIfSaIfEEixEm(ptr noundef nonnull align 8 dereferenceable(24) %22, i64 noundef %66) #3
  %68 = load float, ptr %67, align 4, !tbaa !107
  %69 = getelementptr inbounds nuw %"class.LightGBM::Metadata", ptr %21, i32 0, i32 5
  %70 = load i32, ptr %20, align 4, !tbaa !103
  %71 = sext i32 %70 to i64
  %72 = call noundef nonnull align 4 dereferenceable(4) ptr @_ZNSt6vectorIfSaIfEEixEm(ptr noundef nonnull align 8 dereferenceable(24) %69, i64 noundef %71) #3
  store float %68, ptr %72, align 4, !tbaa !107
  br label %73

73:                                               ; preds = %57
  br label %74

74:                                               ; preds = %73
  %75 = load i32, ptr %12, align 4, !tbaa !103
  %76 = add nsw i32 %75, 1
  store i32 %76, ptr %12, align 4, !tbaa !103
  br label %52

77:                                               ; preds = %56
  br label %78

78:                                               ; preds = %77
  %79 = load i32, ptr %16, align 4, !tbaa !103
  %80 = load i32, ptr %18, align 4, !tbaa !103
  %81 = add nsw i32 %79, %80
  store i32 %81, ptr %16, align 4, !tbaa !103
  %82 = load i32, ptr %17, align 4, !tbaa !103
  %83 = load i32, ptr %18, align 4, !tbaa !103
  %84 = add nsw i32 %82, %83
  store i32 %84, ptr %17, align 4, !tbaa !103
  br label %36

85:                                               ; preds = %50
  %86 = load ptr, ptr %6, align 8
  %87 = load i32, ptr %86, align 4, !tbaa !103
  call void @__kmpc_for_static_fini(ptr @1, i32 %87)
  call void @llvm.lifetime.end.p0(i64 4, ptr %20) #3
  call void @llvm.lifetime.end.p0(i64 4, ptr %19) #3
  call void @llvm.lifetime.end.p0(i64 4, ptr %18) #3
  call void @llvm.lifetime.end.p0(i64 4, ptr %17) #3
  call void @llvm.lifetime.end.p0(i64 4, ptr %16) #3
  br label %88

88:                                               ; preds = %85, %5
  call void @llvm.lifetime.end.p0(i64 4, ptr %14) #3
  call void @llvm.lifetime.end.p0(i64 4, ptr %13) #3
  call void @llvm.lifetime.end.p0(i64 4, ptr %12) #3
  ret void
}