; Function Attrs: noinline norecurse nounwind uwtable
define internal void @_ZN8LightGBM8Metadata14PartitionLabelERKSt6vectorIiSaIiEE.omp_outlined(ptr noalias noundef readonly captures(none) %0, ptr noalias readnone captures(none) %1, ptr noundef readonly captures(none) %2, ptr noundef nonnull readonly align 8 captures(none) dereferenceable(24) %3, ptr noundef nonnull readonly align 8 captures(none) dereferenceable(24) %4) #19 {
  %6 = alloca i32, align 4
  %7 = alloca i32, align 4
  %8 = alloca i32, align 4
  %9 = alloca i32, align 4
  %10 = getelementptr inbounds nuw i8, ptr %2, i64 32
  %11 = load i32, ptr %10, align 8, !tbaa !40
  %12 = add nsw i32 %11, -1
  %13 = icmp sgt i32 %11, 0
  br i1 %13, label %14, label %36

14:                                               ; preds = %5
  call void @llvm.lifetime.start.p0(i64 4, ptr nonnull %6) #20
  store i32 0, ptr %6, align 4, !tbaa !59
  call void @llvm.lifetime.start.p0(i64 4, ptr nonnull %7) #20
  store i32 %12, ptr %7, align 4, !tbaa !59
  call void @llvm.lifetime.start.p0(i64 4, ptr nonnull %8) #20
  store i32 1, ptr %8, align 4, !tbaa !59
  call void @llvm.lifetime.start.p0(i64 4, ptr nonnull %9) #20
  store i32 0, ptr %9, align 4, !tbaa !59
  %15 = load i32, ptr %0, align 4, !tbaa !59
  call void @__kmpc_for_static_init_4(ptr nonnull @1, i32 %15, i32 33, ptr nonnull %9, ptr nonnull %6, ptr nonnull %7, ptr nonnull %8, i32 1, i32 512)
  %.promoted = load i32, ptr %7, align 4, !tbaa !59
  %.promoted19 = load i32, ptr %6, align 4, !tbaa !59
  %16 = call i32 @llvm.smin.i32(i32 %.promoted, i32 %12)
  store i32 %16, ptr %7, align 4, !tbaa !59
  %.not20 = icmp sgt i32 %.promoted19, %16
  br i1 %.not20, label %._crit_edge, label %.preheader.lr.ph

.preheader.lr.ph:                                 ; preds = %14
  %17 = load ptr, ptr %4, align 8, !tbaa !60
  %18 = load ptr, ptr %3, align 8, !tbaa !70
  %19 = getelementptr inbounds nuw i8, ptr %2, i64 48
  %20 = load ptr, ptr %19, align 8, !tbaa !70
  %21 = load i32, ptr %8, align 4, !tbaa !59
  %22 = sext i32 %.promoted19 to i64
  %23 = sext i32 %21 to i64
  br label %.preheader

.preheader:                                       ; preds = %.preheader.lr.ph, %33
  %indvars.iv = phi i64 [ %22, %.preheader.lr.ph ], [ %indvars.iv.next, %33 ]
  %24 = phi i32 [ %16, %.preheader.lr.ph ], [ %35, %33 ]
  %25 = sext i32 %24 to i64
  br label %26

26:                                               ; preds = %.preheader, %26
  %indvars.iv21 = phi i64 [ %indvars.iv, %.preheader ], [ %indvars.iv.next22, %26 ]
  %27 = getelementptr inbounds nuw i32, ptr %17, i64 %indvars.iv21
  %28 = load i32, ptr %27, align 4, !tbaa !59
  %29 = sext i32 %28 to i64
  %30 = getelementptr inbounds nuw float, ptr %18, i64 %29
  %31 = load float, ptr %30, align 4, !tbaa !68
  %32 = getelementptr inbounds nuw float, ptr %20, i64 %indvars.iv21
  store float %31, ptr %32, align 4, !tbaa !68
  %indvars.iv.next22 = add nsw i64 %indvars.iv21, 1
  %.not17.not = icmp slt i64 %indvars.iv21, %25
  br i1 %.not17.not, label %26, label %33

33:                                               ; preds = %26
  %indvars.iv.next = add i64 %indvars.iv, %23
  %indvars = trunc i64 %indvars.iv.next to i32
  store i32 %indvars, ptr %6, align 4, !tbaa !59
  %34 = add nsw i32 %21, %24
  %35 = call i32 @llvm.smin.i32(i32 %34, i32 %12)
  store i32 %35, ptr %7, align 4, !tbaa !59
  %.not = icmp slt i32 %35, %indvars
  br i1 %.not, label %._crit_edge, label %.preheader

._crit_edge:                                      ; preds = %33, %14
  call void @__kmpc_for_static_fini(ptr nonnull @1, i32 %15)
  call void @llvm.lifetime.end.p0(i64 4, ptr nonnull %9) #20
  call void @llvm.lifetime.end.p0(i64 4, ptr nonnull %8) #20
  call void @llvm.lifetime.end.p0(i64 4, ptr nonnull %7) #20
  call void @llvm.lifetime.end.p0(i64 4, ptr nonnull %6) #20
  br label %36

36:                                               ; preds = %._crit_edge, %5
  ret void
}